; Function Attrs: mustprogress uwtable
define noundef zeroext i1 @_ZN5draco11MeshDecoder18DecodeGeometryDataEv(ptr noundef nonnull align 8 dereferenceable(96) %0) unnamed_addr #3 align 2 {
  %2 = getelementptr inbounds nuw i8, ptr %0, i64 88
  %3 = load ptr, ptr %2, align 8, !tbaa !6
  %4 = icmp eq ptr %3, null
  br i1 %4, label %10, label %5

5:                                                ; preds = %1
  %6 = load ptr, ptr %0, align 8, !tbaa !3
  %7 = getelementptr inbounds nuw i8, ptr %6, i64 96
  %8 = load ptr, ptr %7, align 8
  %9 = tail call noundef zeroext i1 %8(ptr noundef nonnull align 8 dereferenceable(96) %0)
  br label %10

10:                                               ; preds = %5, %1
  %.0 = phi i1 [ false, %1 ], [ %9, %5 ]
  ret i1 %.0
}